; Function Attrs: nounwind uwtable
define hidden range(i32 -1, 1) i32 @dom_xpath_document_read(ptr noundef %0, ptr noundef %1) local_unnamed_addr #0 {
  %3 = load ptr, ptr %0, align 8, !tbaa !53
  %.not = icmp eq ptr %3, null
  br i1 %.not, label %.thread, label %4

4:                                                ; preds = %2
  %5 = load ptr, ptr %3, align 8, !tbaa !84
  %.not9 = icmp eq ptr %5, null
  br i1 %.not9, label %.thread, label %6, !prof !85

.thread:                                          ; preds = %2, %4
  tail call void @php_dom_throw_error(i32 noundef 11, i1 noundef zeroext true) #12
  br label %8

6:                                                ; preds = %4
  %7 = tail call zeroext i1 @php_dom_create_object(ptr noundef nonnull %5, ptr noundef %1, ptr noundef nonnull %0) #12
  br label %8

8:                                                ; preds = %6, %.thread
  %.0 = phi i32 [ -1, %.thread ], [ 0, %6 ]
  ret i32 %.0
}